target datalayout = "e-m:e-p270:32:32-p271:32:32-p272:64:64-i64:64-i128:128-f80:128-n8:16:32:64-S128"
target triple = "x86_64-pc-linux-gnu"

%struct.ggml_tensor = type { i32, ptr, [4 x i64], [4 x i64], i32, [16 x i32], i32, [10 x ptr], ptr, i64, ptr, [64 x i8], ptr, [8 x i8] }

@.str.12 = private unnamed_addr constant [113 x i8] c"generated/home/dtcxzyw/WorkSpace/Projects/compilers/llvm-opt-benchmark/bench/llama.cpp/llama.cpp/ggml/src/ggml.c\00", align 1
@.str.13 = private unnamed_addr constant [23 x i8] c"GGML_ASSERT(%s) failed\00", align 1
@.str.65 = private unnamed_addr constant [21 x i8] c"a->ne[2] == b->ne[1]\00", align 1
@.str.81 = private unnamed_addr constant [18 x i8] c"ggml_is_matrix(b)\00", align 1
@.str.82 = private unnamed_addr constant [14 x i8] c"a->ne[3] == 1\00", align 1
@.str.83 = private unnamed_addr constant [8 x i8] c"p0 == 0\00", align 1
@.str.84 = private unnamed_addr constant [8 x i8] c"d0 == 1\00", align 1
@.str.463 = private unnamed_addr constant [118 x i8] c"generated/home/dtcxzyw/WorkSpace/Projects/compilers/llvm-opt-benchmark/bench/llama.cpp/llama.cpp/ggml/src/ggml-impl.h\00", align 1
@.str.464 = private unnamed_addr constant [15 x i8] c"tensor != NULL\00", align 1

; Function Attrs: nounwind uwtable
define internal void @ggml_set_op_params(ptr noundef %0, ptr noundef %1, i64 noundef %2) #5 {
  %4 = alloca ptr, align 8
  %5 = alloca ptr, align 8
  %6 = alloca i64, align 8
  store ptr %0, ptr %4, align 8, !tbaa !54
  store ptr %1, ptr %5, align 8, !tbaa !18
  store i64 %2, ptr %6, align 8, !tbaa !19
  %7 = load ptr, ptr %4, align 8, !tbaa !54
  %8 = icmp ne ptr %7, null
  br i1 %8, label %10, label %9

9:                                                ; preds = %3
  call void (ptr, i32, ptr, ...) @ggml_abort(ptr noundef @.str.463, i32 noundef 112, ptr noundef @.str.13, ptr noundef @.str.464) #18
  unreachable

10:                                               ; preds = %3
  %11 = load ptr, ptr %4, align 8, !tbaa !54
  %12 = getelementptr inbounds nuw %struct.ggml_tensor, ptr %11, i32 0, i32 5
  %13 = getelementptr inbounds [16 x i32], ptr %12, i64 0, i64 0
  %14 = load ptr, ptr %5, align 8, !tbaa !18
  %15 = load i64, ptr %6, align 8, !tbaa !19
  call void @llvm.memcpy.p0.p0.i64(ptr align 4 %13, ptr align 1 %14, i64 %15, i1 false)
  ret void
}

; Function Attrs: nounwind uwtable
define ptr @ggml_new_tensor(ptr noundef %0, i32 noundef %1, i32 noundef %2, ptr noundef %3) #5 {
  %5 = alloca ptr, align 8
  %6 = alloca i32, align 4
  %7 = alloca i32, align 4
  %8 = alloca ptr, align 8
  store ptr %0, ptr %5, align 8, !tbaa !48
  store i32 %1, ptr %6, align 4, !tbaa !8
  store i32 %2, ptr %7, align 4, !tbaa !8
  store ptr %3, ptr %8, align 8, !tbaa !88
  %9 = load ptr, ptr %5, align 8, !tbaa !48
  %10 = load i32, ptr %6, align 4, !tbaa !8
  %11 = load i32, ptr %7, align 4, !tbaa !8
  %12 = load ptr, ptr %8, align 8, !tbaa !88
  %13 = call ptr @ggml_new_tensor_impl(ptr noundef %9, i32 noundef %10, i32 noundef %11, ptr noundef %12, ptr noundef null, i64 noundef 0)
  ret ptr %13
}

; Function Attrs: nounwind uwtable
define internal i64 @ggml_calc_conv_transpose_1d_output_size(i64 noundef %0, i64 noundef %1, i32 noundef %2, i32 noundef %3, i32 noundef %4) #5 {
  %6 = alloca i64, align 8
  %7 = alloca i64, align 8
  %8 = alloca i32, align 4
  %9 = alloca i32, align 4
  %10 = alloca i32, align 4
  store i64 %0, ptr %6, align 8, !tbaa !19
  store i64 %1, ptr %7, align 8, !tbaa !19
  store i32 %2, ptr %8, align 4, !tbaa !8
  store i32 %3, ptr %9, align 4, !tbaa !8
  store i32 %4, ptr %10, align 4, !tbaa !8
  %11 = load i64, ptr %6, align 8, !tbaa !19
  %12 = sub nsw i64 %11, 1
  %13 = load i32, ptr %8, align 4, !tbaa !8
  %14 = sext i32 %13 to i64
  %15 = mul nsw i64 %12, %14
  %16 = load i32, ptr %9, align 4, !tbaa !8
  %17 = mul nsw i32 2, %16
  %18 = sext i32 %17 to i64
  %19 = sub nsw i64 %15, %18
  %20 = load i32, ptr %10, align 4, !tbaa !8
  %21 = sext i32 %20 to i64
  %22 = load i64, ptr %7, align 8, !tbaa !19
  %23 = sub nsw i64 %22, 1
  %24 = mul nsw i64 %21, %23
  %25 = add nsw i64 %19, %24
  %26 = add nsw i64 %25, 1
  ret i64 %26
}

; Function Attrs: nounwind uwtable
define zeroext i1 @ggml_is_matrix(ptr noundef %0) #5 {
  %2 = alloca ptr, align 8
  store ptr %0, ptr %2, align 8, !tbaa !54
  %3 = load ptr, ptr %2, align 8, !tbaa !54
  %4 = getelementptr inbounds nuw %struct.ggml_tensor, ptr %3, i32 0, i32 2
  %5 = getelementptr inbounds [4 x i64], ptr %4, i64 0, i64 2
  %6 = load i64, ptr %5, align 8, !tbaa !19
  %7 = icmp eq i64 %6, 1
  br i1 %7, label %8, label %14

8:                                                ; preds = %1
  %9 = load ptr, ptr %2, align 8, !tbaa !54
  %10 = getelementptr inbounds nuw %struct.ggml_tensor, ptr %9, i32 0, i32 2
  %11 = getelementptr inbounds [4 x i64], ptr %10, i64 0, i64 3
  %12 = load i64, ptr %11, align 8, !tbaa !19
  %13 = icmp eq i64 %12, 1
  br label %14

14:                                               ; preds = %8, %1
  %15 = phi i1 [ false, %1 ], [ %13, %8 ]
  ret i1 %15
}

; Function Attrs: nounwind uwtable
define ptr @ggml_conv_transpose_1d(ptr noundef %0, ptr noundef %1, ptr noundef %2, i32 noundef %3, i32 noundef %4, i32 noundef %5) #5 {
  %7 = alloca ptr, align 8
  %8 = alloca ptr, align 8
  %9 = alloca ptr, align 8
  %10 = alloca i32, align 4
  %11 = alloca i32, align 4
  %12 = alloca i32, align 4
  %13 = alloca [4 x i64], align 16
  %14 = alloca ptr, align 8
  %15 = alloca [3 x i32], align 4
  store ptr %0, ptr %7, align 8, !tbaa !48
  store ptr %1, ptr %8, align 8, !tbaa !54
  store ptr %2, ptr %9, align 8, !tbaa !54
  store i32 %3, ptr %10, align 4, !tbaa !8
  store i32 %4, ptr %11, align 4, !tbaa !8
  store i32 %5, ptr %12, align 4, !tbaa !8
  %16 = load ptr, ptr %9, align 8, !tbaa !54
  %17 = call zeroext i1 @ggml_is_matrix(ptr noundef %16)
  br i1 %17, label %19, label %18

18:                                               ; preds = %6
  call void (ptr, i32, ptr, ...) @ggml_abort(ptr noundef @.str.12, i32 noundef 3926, ptr noundef @.str.13, ptr noundef @.str.81) #18
  unreachable

19:                                               ; preds = %6
  %20 = load ptr, ptr %8, align 8, !tbaa !54
  %21 = getelementptr inbounds nuw %struct.ggml_tensor, ptr %20, i32 0, i32 2
  %22 = getelementptr inbounds [4 x i64], ptr %21, i64 0, i64 2
  %23 = load i64, ptr %22, align 8, !tbaa !19
  %24 = load ptr, ptr %9, align 8, !tbaa !54
  %25 = getelementptr inbounds nuw %struct.ggml_tensor, ptr %24, i32 0, i32 2
  %26 = getelementptr inbounds [4 x i64], ptr %25, i64 0, i64 1
  %27 = load i64, ptr %26, align 8, !tbaa !19
  %28 = icmp eq i64 %23, %27
  br i1 %28, label %30, label %29

29:                                               ; preds = %19
  call void (ptr, i32, ptr, ...) @ggml_abort(ptr noundef @.str.12, i32 noundef 3927, ptr noundef @.str.13, ptr noundef @.str.65) #18
  unreachable

30:                                               ; preds = %19
  %31 = load ptr, ptr %8, align 8, !tbaa !54
  %32 = getelementptr inbounds nuw %struct.ggml_tensor, ptr %31, i32 0, i32 2
  %33 = getelementptr inbounds [4 x i64], ptr %32, i64 0, i64 3
  %34 = load i64, ptr %33, align 8, !tbaa !19
  %35 = icmp eq i64 %34, 1
  br i1 %35, label %37, label %36

36:                                               ; preds = %30
  call void (ptr, i32, ptr, ...) @ggml_abort(ptr noundef @.str.12, i32 noundef 3928, ptr noundef @.str.13, ptr noundef @.str.82) #18
  unreachable

37:                                               ; preds = %30
  %38 = load i32, ptr %11, align 4, !tbaa !8
  %39 = icmp eq i32 %38, 0
  br i1 %39, label %41, label %40

40:                                               ; preds = %37
  call void (ptr, i32, ptr, ...) @ggml_abort(ptr noundef @.str.12, i32 noundef 3930, ptr noundef @.str.13, ptr noundef @.str.83) #18
  unreachable

41:                                               ; preds = %37
  %42 = load i32, ptr %12, align 4, !tbaa !8
  %43 = icmp eq i32 %42, 1
  br i1 %43, label %45, label %44

44:                                               ; preds = %41
  call void (ptr, i32, ptr, ...) @ggml_abort(ptr noundef @.str.12, i32 noundef 3931, ptr noundef @.str.13, ptr noundef @.str.84) #18
  unreachable

45:                                               ; preds = %41
  call void @llvm.lifetime.start.p0(i64 32, ptr %13) #14
  %46 = load ptr, ptr %9, align 8, !tbaa !54
  %47 = getelementptr inbounds nuw %struct.ggml_tensor, ptr %46, i32 0, i32 2
  %48 = getelementptr inbounds [4 x i64], ptr %47, i64 0, i64 0
  %49 = load i64, ptr %48, align 8, !tbaa !19
  %50 = load ptr, ptr %8, align 8, !tbaa !54
  %51 = getelementptr inbounds nuw %struct.ggml_tensor, ptr %50, i32 0, i32 2
  %52 = getelementptr inbounds [4 x i64], ptr %51, i64 0, i64 0
  %53 = load i64, ptr %52, align 8, !tbaa !19
  %54 = load i32, ptr %10, align 4, !tbaa !8
  %55 = call i64 @ggml_calc_conv_transpose_1d_output_size(i64 noundef %49, i64 noundef %53, i32 noundef %54, i32 noundef 0, i32 noundef 1)
  store i64 %55, ptr %13, align 8, !tbaa !19
  %56 = getelementptr inbounds i64, ptr %13, i64 1
  %57 = load ptr, ptr %8, align 8, !tbaa !54
  %58 = getelementptr inbounds nuw %struct.ggml_tensor, ptr %57, i32 0, i32 2
  %59 = getelementptr inbounds [4 x i64], ptr %58, i64 0, i64 1
  %60 = load i64, ptr %59, align 8, !tbaa !19
  store i64 %60, ptr %56, align 8, !tbaa !19
  %61 = getelementptr inbounds i64, ptr %13, i64 2
  %62 = load ptr, ptr %9, align 8, !tbaa !54
  %63 = getelementptr inbounds nuw %struct.ggml_tensor, ptr %62, i32 0, i32 2
  %64 = getelementptr inbounds [4 x i64], ptr %63, i64 0, i64 2
  %65 = load i64, ptr %64, align 8, !tbaa !19
  store i64 %65, ptr %61, align 8, !tbaa !19
  %66 = getelementptr inbounds i64, ptr %13, i64 3
  store i64 1, ptr %66, align 8, !tbaa !19
  call void @llvm.lifetime.start.p0(i64 8, ptr %14) #14
  %67 = load ptr, ptr %7, align 8, !tbaa !48
  %68 = getelementptr inbounds [4 x i64], ptr %13, i64 0, i64 0
  %69 = call ptr @ggml_new_tensor(ptr noundef %67, i32 noundef 0, i32 noundef 4, ptr noundef %68)
  store ptr %69, ptr %14, align 8, !tbaa !54
  call void @llvm.lifetime.start.p0(i64 12, ptr %15) #14
  %70 = load i32, ptr %10, align 4, !tbaa !8
  store i32 %70, ptr %15, align 4, !tbaa !8
  %71 = getelementptr inbounds i32, ptr %15, i64 1
  %72 = load i32, ptr %11, align 4, !tbaa !8
  store i32 %72, ptr %71, align 4, !tbaa !8
  %73 = getelementptr inbounds i32, ptr %15, i64 2
  %74 = load i32, ptr %12, align 4, !tbaa !8
  store i32 %74, ptr %73, align 4, !tbaa !8
  %75 = load ptr, ptr %14, align 8, !tbaa !54
  %76 = getelementptr inbounds [3 x i32], ptr %15, i64 0, i64 0
  call void @ggml_set_op_params(ptr noundef %75, ptr noundef %76, i64 noundef 12)
  %77 = load ptr, ptr %14, align 8, !tbaa !54
  %78 = getelementptr inbounds nuw %struct.ggml_tensor, ptr %77, i32 0, i32 4
  store i32 47, ptr %78, align 8, !tbaa !68
  %79 = load ptr, ptr %8, align 8, !tbaa !54
  %80 = load ptr, ptr %14, align 8, !tbaa !54
  %81 = getelementptr inbounds nuw %struct.ggml_tensor, ptr %80, i32 0, i32 7
  %82 = getelementptr inbounds [10 x ptr], ptr %81, i64 0, i64 0
  store ptr %79, ptr %82, align 8, !tbaa !54
  %83 = load ptr, ptr %9, align 8, !tbaa !54
  %84 = load ptr, ptr %14, align 8, !tbaa !54
  %85 = getelementptr inbounds nuw %struct.ggml_tensor, ptr %84, i32 0, i32 7
  %86 = getelementptr inbounds [10 x ptr], ptr %85, i64 0, i64 1
  store ptr %83, ptr %86, align 8, !tbaa !54
  %87 = load ptr, ptr %14, align 8, !tbaa !54
  call void @llvm.lifetime.end.p0(i64 12, ptr %15) #14
  call void @llvm.lifetime.end.p0(i64 8, ptr %14) #14
  call void @llvm.lifetime.end.p0(i64 32, ptr %13) #14
  ret ptr %87
}