; Function Attrs: nounwind uwtable
define noundef ptr @ggml_conv_transpose_1d(ptr noundef captures(none) %0, ptr noundef %1, ptr noundef %2, i32 noundef %3, i32 noundef %4, i32 noundef %5) local_unnamed_addr #4 {
  %7 = alloca [4 x i64], align 16
  %8 = getelementptr inbounds nuw i8, ptr %2, i64 32
  %9 = load i64, ptr %8, align 8, !tbaa !39
  %10 = icmp eq i64 %9, 1
  br i1 %10, label %ggml_is_matrix.exit, label %ggml_is_matrix.exit.thread

ggml_is_matrix.exit:                              ; preds = %6
  %11 = getelementptr inbounds nuw i8, ptr %2, i64 40
  %12 = load i64, ptr %11, align 8, !tbaa !39
  %13 = icmp eq i64 %12, 1
  br i1 %13, label %14, label %ggml_is_matrix.exit.thread

ggml_is_matrix.exit.thread:                       ; preds = %6, %ggml_is_matrix.exit
  tail call void (ptr, i32, ptr, ...) @ggml_abort(ptr noundef nonnull @.str.12, i32 noundef 3926, ptr noundef nonnull @.str.13, ptr noundef nonnull @.str.81) #47
  unreachable

14:                                               ; preds = %ggml_is_matrix.exit
  %15 = getelementptr inbounds nuw i8, ptr %1, i64 32
  %16 = load i64, ptr %15, align 8, !tbaa !39
  %17 = getelementptr inbounds nuw i8, ptr %2, i64 24
  %18 = load i64, ptr %17, align 8, !tbaa !39
  %19 = icmp eq i64 %16, %18
  br i1 %19, label %21, label %20

20:                                               ; preds = %14
  tail call void (ptr, i32, ptr, ...) @ggml_abort(ptr noundef nonnull @.str.12, i32 noundef 3927, ptr noundef nonnull @.str.13, ptr noundef nonnull @.str.65) #47
  unreachable

21:                                               ; preds = %14
  %22 = getelementptr inbounds nuw i8, ptr %1, i64 40
  %23 = load i64, ptr %22, align 8, !tbaa !39
  %24 = icmp eq i64 %23, 1
  br i1 %24, label %26, label %25

25:                                               ; preds = %21
  tail call void (ptr, i32, ptr, ...) @ggml_abort(ptr noundef nonnull @.str.12, i32 noundef 3928, ptr noundef nonnull @.str.13, ptr noundef nonnull @.str.82) #47
  unreachable

26:                                               ; preds = %21
  %27 = icmp eq i32 %4, 0
  br i1 %27, label %29, label %28

28:                                               ; preds = %26
  tail call void (ptr, i32, ptr, ...) @ggml_abort(ptr noundef nonnull @.str.12, i32 noundef 3930, ptr noundef nonnull @.str.13, ptr noundef nonnull @.str.83) #47
  unreachable

29:                                               ; preds = %26
  %30 = icmp eq i32 %5, 1
  br i1 %30, label %32, label %31

31:                                               ; preds = %29
  tail call void (ptr, i32, ptr, ...) @ggml_abort(ptr noundef nonnull @.str.12, i32 noundef 3931, ptr noundef nonnull @.str.13, ptr noundef nonnull @.str.84) #47
  unreachable

32:                                               ; preds = %29
  %33 = getelementptr inbounds nuw i8, ptr %1, i64 16
  %34 = getelementptr inbounds nuw i8, ptr %2, i64 16
  call void @llvm.lifetime.start.p0(i64 32, ptr nonnull %7) #42
  %35 = load i64, ptr %34, align 8, !tbaa !39
  %36 = load i64, ptr %33, align 8, !tbaa !39
  %37 = add nsw i64 %35, -1
  %38 = sext i32 %3 to i64
  %39 = mul nsw i64 %37, %38
  %40 = add i64 %39, %36
  store i64 %40, ptr %7, align 16, !tbaa !39
  %41 = getelementptr inbounds nuw i8, ptr %7, i64 8
  %42 = getelementptr inbounds nuw i8, ptr %1, i64 24
  %43 = load i64, ptr %42, align 8, !tbaa !39
  store i64 %43, ptr %41, align 8, !tbaa !39
  %44 = getelementptr inbounds nuw i8, ptr %7, i64 16
  store i64 1, ptr %44, align 16, !tbaa !39
  %45 = getelementptr inbounds nuw i8, ptr %7, i64 24
  store i64 1, ptr %45, align 8, !tbaa !39
  %46 = call fastcc noundef ptr @ggml_new_tensor_impl(ptr noundef %0, i32 noundef 0, i32 noundef 4, ptr noundef nonnull readonly %7, ptr noundef null, i64 noundef 0)
  %.not.i = icmp eq ptr %46, null
  br i1 %.not.i, label %47, label %ggml_set_op_params.exit

47:                                               ; preds = %32
  tail call void (ptr, i32, ptr, ...) @ggml_abort(ptr noundef nonnull @.str.463, i32 noundef 112, ptr noundef nonnull @.str.13, ptr noundef nonnull @.str.464) #47
  unreachable

ggml_set_op_params.exit:                          ; preds = %32
  %48 = getelementptr inbounds nuw i8, ptr %46, i64 84
  store i32 %3, ptr %48, align 4
  %.sroa.4.0..sroa_idx = getelementptr inbounds nuw i8, ptr %46, i64 88
  store i32 0, ptr %.sroa.4.0..sroa_idx, align 4
  %.sroa.5.0..sroa_idx = getelementptr inbounds nuw i8, ptr %46, i64 92
  store i32 1, ptr %.sroa.5.0..sroa_idx, align 4
  %49 = getelementptr inbounds nuw i8, ptr %46, i64 80
  store i32 47, ptr %49, align 8, !tbaa !55
  %50 = getelementptr inbounds nuw i8, ptr %46, i64 152
  store ptr %1, ptr %50, align 8, !tbaa !81
  %51 = getelementptr inbounds nuw i8, ptr %46, i64 160
  store ptr %2, ptr %51, align 8, !tbaa !81
  call void @llvm.lifetime.end.p0(i64 32, ptr nonnull %7) #42
  ret ptr %46
}